target datalayout = "e-m:e-p270:32:32-p271:32:32-p272:64:64-i64:64-i128:128-f80:128-n8:16:32:64-S128"
target triple = "x86_64-pc-linux-gnu"

%struct.FLAC__StreamMetadata = type { i32, i32, i32, %union.anon }
%union.anon = type { %struct.FLAC__StreamMetadata_CueSheet }
%struct.FLAC__StreamMetadata_CueSheet = type { [129 x i8], i64, i32, i32, ptr }
%struct.FLAC__StreamMetadata_Picture = type { i32, ptr, ptr, i32, i32, i32, i32, i32, ptr }

; Function Attrs: alwaysinline nounwind
define internal ptr @memcpy.inline(ptr noalias nonnull %0, ptr noalias nonnull %1, i64 %2) #5 {
  %4 = alloca ptr, align 8
  %5 = alloca ptr, align 8
  %6 = alloca i64, align 8
  store ptr %0, ptr %4, align 8, !tbaa !27
  store ptr %1, ptr %5, align 8, !tbaa !27
  store i64 %2, ptr %6, align 8, !tbaa !28
  %7 = load ptr, ptr %4, align 8, !tbaa !27
  %8 = load ptr, ptr %5, align 8, !tbaa !27
  %9 = load i64, ptr %6, align 8, !tbaa !28
  %10 = load ptr, ptr %4, align 8, !tbaa !27
  %11 = call i64 @llvm.objectsize.i64.p0(ptr %10, i1 false, i1 true, i1 false)
  %12 = call ptr @__memcpy_chk(ptr noundef %7, ptr noundef %8, i64 noundef %9, i64 noundef %11) #12
  ret ptr %12
}

; Function Attrs: inlinehint nounwind sspstrong uwtable
define internal ptr @safe_malloc_(i64 noundef %0) #9 {
  %2 = alloca i64, align 8
  store i64 %0, ptr %2, align 8, !tbaa !28
  %3 = load i64, ptr %2, align 8, !tbaa !28
  %4 = icmp ne i64 %3, 0
  br i1 %4, label %8, label %5

5:                                                ; preds = %1
  %6 = load i64, ptr %2, align 8, !tbaa !28
  %7 = add i64 %6, 1
  store i64 %7, ptr %2, align 8, !tbaa !28
  br label %8

8:                                                ; preds = %5, %1
  %9 = load i64, ptr %2, align 8, !tbaa !28
  %10 = call noalias ptr @malloc(i64 noundef %9) #16
  ret ptr %10
}

; Function Attrs: nounwind sspstrong uwtable
define internal i32 @copy_bytes_(ptr noundef %0, ptr noundef %1, i32 noundef %2) #0 {
  %4 = alloca i32, align 4
  %5 = alloca ptr, align 8
  %6 = alloca ptr, align 8
  %7 = alloca i32, align 4
  %8 = alloca ptr, align 8
  %9 = alloca i32, align 4
  store ptr %0, ptr %5, align 8, !tbaa !17
  store ptr %1, ptr %6, align 8, !tbaa !14
  store i32 %2, ptr %7, align 4, !tbaa !3
  %10 = load i32, ptr %7, align 4, !tbaa !3
  %11 = icmp ugt i32 %10, 0
  br i1 %11, label %12, label %32

12:                                               ; preds = %3
  %13 = load ptr, ptr %6, align 8, !tbaa !14
  %14 = icmp ne ptr %13, null
  br i1 %14, label %15, label %32

15:                                               ; preds = %12
  call void @llvm.lifetime.start.p0(i64 8, ptr %8) #12
  %16 = load i32, ptr %7, align 4, !tbaa !3
  %17 = zext i32 %16 to i64
  %18 = call ptr @safe_malloc_(i64 noundef %17)
  store ptr %18, ptr %8, align 8, !tbaa !14
  %19 = icmp eq ptr %18, null
  br i1 %19, label %20, label %21

20:                                               ; preds = %15
  store i32 0, ptr %4, align 4
  store i32 1, ptr %9, align 4
  br label %29

21:                                               ; preds = %15
  %22 = load ptr, ptr %8, align 8, !tbaa !14
  %23 = load ptr, ptr %6, align 8, !tbaa !14
  %24 = load i32, ptr %7, align 4, !tbaa !3
  %25 = zext i32 %24 to i64
  %26 = call ptr @memcpy.inline(ptr noundef %22, ptr noundef %23, i64 noundef %25) #12
  %27 = load ptr, ptr %8, align 8, !tbaa !14
  %28 = load ptr, ptr %5, align 8, !tbaa !17
  store ptr %27, ptr %28, align 8, !tbaa !14
  store i32 0, ptr %9, align 4
  br label %29

29:                                               ; preds = %21, %20
  call void @llvm.lifetime.end.p0(i64 8, ptr %8) #12
  %30 = load i32, ptr %9, align 4
  switch i32 %30, label %37 [
    i32 0, label %31
    i32 1, label %35
  ]

31:                                               ; preds = %29
  br label %34

32:                                               ; preds = %12, %3
  %33 = load ptr, ptr %5, align 8, !tbaa !17
  store ptr null, ptr %33, align 8, !tbaa !14
  br label %34

34:                                               ; preds = %32, %31
  store i32 1, ptr %4, align 4
  br label %35

35:                                               ; preds = %34, %29
  %36 = load i32, ptr %4, align 4
  ret i32 %36

37:                                               ; preds = %29
  unreachable
}

; Function Attrs: nounwind sspstrong uwtable
define i32 @FLAC__metadata_object_picture_set_description(ptr noundef %0, ptr noundef %1, i32 noundef %2) #0 {
  %4 = alloca i32, align 4
  %5 = alloca ptr, align 8
  %6 = alloca ptr, align 8
  %7 = alloca i32, align 4
  %8 = alloca ptr, align 8
  %9 = alloca i64, align 8
  %10 = alloca i64, align 8
  %11 = alloca i32, align 4
  store ptr %0, ptr %5, align 8, !tbaa !7
  store ptr %1, ptr %6, align 8, !tbaa !14
  store i32 %2, ptr %7, align 4, !tbaa !3
  call void @llvm.lifetime.start.p0(i64 8, ptr %8) #12
  call void @llvm.lifetime.start.p0(i64 8, ptr %9) #12
  call void @llvm.lifetime.start.p0(i64 8, ptr %10) #12
  %12 = load ptr, ptr %5, align 8, !tbaa !7
  %13 = getelementptr inbounds nuw %struct.FLAC__StreamMetadata, ptr %12, i32 0, i32 3
  %14 = getelementptr inbounds nuw %struct.FLAC__StreamMetadata_Picture, ptr %13, i32 0, i32 2
  %15 = load ptr, ptr %14, align 8, !tbaa !16
  store ptr %15, ptr %8, align 8, !tbaa !14
  %16 = load ptr, ptr %8, align 8, !tbaa !14
  %17 = icmp ne ptr %16, null
  br i1 %17, label %18, label %21

18:                                               ; preds = %3
  %19 = load ptr, ptr %8, align 8, !tbaa !14
  %20 = call i64 @strlen(ptr noundef %19) #14
  br label %22

21:                                               ; preds = %3
  br label %22

22:                                               ; preds = %21, %18
  %23 = phi i64 [ %20, %18 ], [ 0, %21 ]
  store i64 %23, ptr %9, align 8, !tbaa !28
  %24 = load ptr, ptr %6, align 8, !tbaa !14
  %25 = call i64 @strlen(ptr noundef %24) #14
  store i64 %25, ptr %10, align 8, !tbaa !28
  %26 = load i32, ptr %7, align 4, !tbaa !3
  %27 = icmp ne i32 %26, 0
  br i1 %27, label %28, label %44

28:                                               ; preds = %22
  %29 = load i64, ptr %10, align 8, !tbaa !28
  %30 = icmp uge i64 %29, -1
  br i1 %30, label %31, label %32

31:                                               ; preds = %28
  store i32 0, ptr %4, align 4
  store i32 1, ptr %11, align 4
  br label %65

32:                                               ; preds = %28
  %33 = load ptr, ptr %5, align 8, !tbaa !7
  %34 = getelementptr inbounds nuw %struct.FLAC__StreamMetadata, ptr %33, i32 0, i32 3
  %35 = getelementptr inbounds nuw %struct.FLAC__StreamMetadata_Picture, ptr %34, i32 0, i32 2
  %36 = load ptr, ptr %6, align 8, !tbaa !14
  %37 = load i64, ptr %10, align 8, !tbaa !28
  %38 = add i64 %37, 1
  %39 = trunc i64 %38 to i32
  %40 = call i32 @copy_bytes_(ptr noundef %35, ptr noundef %36, i32 noundef %39)
  %41 = icmp ne i32 %40, 0
  br i1 %41, label %43, label %42

42:                                               ; preds = %32
  store i32 0, ptr %4, align 4
  store i32 1, ptr %11, align 4
  br label %65

43:                                               ; preds = %32
  br label %49

44:                                               ; preds = %22
  %45 = load ptr, ptr %6, align 8, !tbaa !14
  %46 = load ptr, ptr %5, align 8, !tbaa !7
  %47 = getelementptr inbounds nuw %struct.FLAC__StreamMetadata, ptr %46, i32 0, i32 3
  %48 = getelementptr inbounds nuw %struct.FLAC__StreamMetadata_Picture, ptr %47, i32 0, i32 2
  store ptr %45, ptr %48, align 8, !tbaa !16
  br label %49

49:                                               ; preds = %44, %43
  %50 = load ptr, ptr %8, align 8, !tbaa !14
  call void @free(ptr noundef %50) #12
  %51 = load i64, ptr %9, align 8, !tbaa !28
  %52 = load ptr, ptr %5, align 8, !tbaa !7
  %53 = getelementptr inbounds nuw %struct.FLAC__StreamMetadata, ptr %52, i32 0, i32 2
  %54 = load i32, ptr %53, align 8, !tbaa !13
  %55 = zext i32 %54 to i64
  %56 = sub i64 %55, %51
  %57 = trunc i64 %56 to i32
  store i32 %57, ptr %53, align 8, !tbaa !13
  %58 = load i64, ptr %10, align 8, !tbaa !28
  %59 = load ptr, ptr %5, align 8, !tbaa !7
  %60 = getelementptr inbounds nuw %struct.FLAC__StreamMetadata, ptr %59, i32 0, i32 2
  %61 = load i32, ptr %60, align 8, !tbaa !13
  %62 = zext i32 %61 to i64
  %63 = add i64 %62, %58
  %64 = trunc i64 %63 to i32
  store i32 %64, ptr %60, align 8, !tbaa !13
  store i32 1, ptr %4, align 4
  store i32 1, ptr %11, align 4
  br label %65

65:                                               ; preds = %49, %42, %31
  call void @llvm.lifetime.end.p0(i64 8, ptr %10) #12
  call void @llvm.lifetime.end.p0(i64 8, ptr %9) #12
  call void @llvm.lifetime.end.p0(i64 8, ptr %8) #12
  %66 = load i32, ptr %4, align 4
  ret i32 %66
}