; Function Attrs: nounwind sspstrong uwtable
define range(i32 0, 2) i32 @FLAC__metadata_object_picture_set_description(ptr noundef captures(none) %0, ptr noundef %1, i32 noundef %2) local_unnamed_addr #0 {
  %4 = getelementptr inbounds nuw i8, ptr %0, i64 32
  %5 = load ptr, ptr %4, align 8, !tbaa !13
  %.not = icmp eq ptr %5, null
  br i1 %.not, label %9, label %6

6:                                                ; preds = %3
  %7 = tail call i64 @strlen(ptr noundef nonnull dereferenceable(1) %5) #29
  %8 = trunc i64 %7 to i32
  br label %9

9:                                                ; preds = %3, %6
  %10 = phi i32 [ %8, %6 ], [ 0, %3 ]
  %11 = tail call i64 @strlen(ptr noundef nonnull dereferenceable(1) %1) #29
  %.not18 = icmp eq i32 %2, 0
  br i1 %.not18, label %.copy_bytes_.exit_crit_edge, label %12

.copy_bytes_.exit_crit_edge:                      ; preds = %9
  %.pre = trunc i64 %11 to i32
  br label %copy_bytes_.exit

12:                                               ; preds = %9
  %13 = icmp eq i64 %11, -1
  br i1 %13, label %copy_bytes_.exit.thread, label %14

14:                                               ; preds = %12
  %15 = trunc i64 %11 to i32
  %16 = add i32 %15, 1
  %.not22 = icmp eq i32 %16, 0
  br i1 %.not22, label %copy_bytes_.exit, label %17

17:                                               ; preds = %14
  %18 = zext i32 %16 to i64
  %19 = tail call noalias noundef ptr @malloc(i64 noundef %18) #30
  %20 = icmp eq ptr %19, null
  br i1 %20, label %copy_bytes_.exit.thread, label %.thread.i

.thread.i:                                        ; preds = %17
  tail call void @llvm.memcpy.p0.p0.i64(ptr noundef nonnull align 1 %19, ptr noundef nonnull readonly align 1 %1, i64 noundef %18, i1 noundef false) #31
  br label %copy_bytes_.exit

copy_bytes_.exit:                                 ; preds = %.copy_bytes_.exit_crit_edge, %.thread.i, %14
  %.pre-phi = phi i32 [ %.pre, %.copy_bytes_.exit_crit_edge ], [ %15, %.thread.i ], [ -1, %14 ]
  %storemerge = phi ptr [ %1, %.copy_bytes_.exit_crit_edge ], [ %19, %.thread.i ], [ null, %14 ]
  store ptr %storemerge, ptr %4, align 8, !tbaa !13
  tail call void @free(ptr noundef %5) #31
  %21 = getelementptr inbounds nuw i8, ptr %0, i64 8
  %22 = load i32, ptr %21, align 8, !tbaa !8
  %23 = sub i32 %.pre-phi, %10
  %24 = add i32 %23, %22
  store i32 %24, ptr %21, align 8, !tbaa !8
  br label %copy_bytes_.exit.thread

copy_bytes_.exit.thread:                          ; preds = %17, %12, %copy_bytes_.exit
  %.0 = phi i32 [ 1, %copy_bytes_.exit ], [ 0, %12 ], [ 0, %17 ]
  ret i32 %.0
}